target datalayout = "e-m:e-p270:32:32-p271:32:32-p272:64:64-i64:64-i128:128-f80:128-n8:16:32:64-S128"
target triple = "x86_64-pc-linux-gnu"

%struct.TValue = type { %union.Value, i8 }
%union.Value = type { ptr }

; Function Attrs: nounwind uwtable
define hidden void @luaT_trybiniTM(ptr noundef %0, ptr noundef %1, i64 noundef %2, i32 noundef %3, ptr noundef %4, i32 noundef %5) #0 {
  %7 = alloca ptr, align 8
  %8 = alloca ptr, align 8
  %9 = alloca i64, align 8
  %10 = alloca i32, align 4
  %11 = alloca ptr, align 8
  %12 = alloca i32, align 4
  %13 = alloca %struct.TValue, align 8
  %14 = alloca ptr, align 8
  store ptr %0, ptr %7, align 8, !tbaa !4
  store ptr %1, ptr %8, align 8, !tbaa !28
  store i64 %2, ptr %9, align 8, !tbaa !49
  store i32 %3, ptr %10, align 4, !tbaa !9
  store ptr %4, ptr %11, align 8, !tbaa !43
  store i32 %5, ptr %12, align 4, !tbaa !9
  call void @llvm.lifetime.start.p0(i64 16, ptr %13) #6
  call void @llvm.lifetime.start.p0(i64 8, ptr %14) #6
  store ptr %13, ptr %14, align 8, !tbaa !28
  %15 = load i64, ptr %9, align 8, !tbaa !49
  %16 = load ptr, ptr %14, align 8, !tbaa !28
  %17 = getelementptr inbounds nuw %struct.TValue, ptr %16, i32 0, i32 0
  store i64 %15, ptr %17, align 8, !tbaa !36
  %18 = load ptr, ptr %14, align 8, !tbaa !28
  %19 = getelementptr inbounds nuw %struct.TValue, ptr %18, i32 0, i32 1
  store i8 3, ptr %19, align 8, !tbaa !30
  call void @llvm.lifetime.end.p0(i64 8, ptr %14) #6
  %20 = load ptr, ptr %7, align 8, !tbaa !4
  %21 = load ptr, ptr %8, align 8, !tbaa !28
  %22 = load i32, ptr %10, align 4, !tbaa !9
  %23 = load ptr, ptr %11, align 8, !tbaa !43
  %24 = load i32, ptr %12, align 4, !tbaa !9
  call void @luaT_trybinassocTM(ptr noundef %20, ptr noundef %21, ptr noundef %13, i32 noundef %22, ptr noundef %23, i32 noundef %24)
  call void @llvm.lifetime.end.p0(i64 16, ptr %13) #6
  ret void
}