; Function Attrs: nounwind uwtable
define hidden void @luaT_trybiniTM(ptr noundef %0, ptr noundef %1, i64 noundef %2, i32 noundef %3, ptr noundef %4, i32 noundef %5) local_unnamed_addr #0 {
  %7 = alloca %struct.TValue, align 8
  call void @llvm.lifetime.start.p0(i64 16, ptr nonnull %7) #5
  store i64 %2, ptr %7, align 8, !tbaa !31
  %8 = getelementptr inbounds nuw i8, ptr %7, i64 8
  store i8 3, ptr %8, align 8, !tbaa !24
  call void @luaT_trybinassocTM(ptr noundef %0, ptr noundef %1, ptr noundef nonnull %7, i32 noundef %3, ptr noundef %4, i32 noundef %5)
  call void @llvm.lifetime.end.p0(i64 16, ptr nonnull %7) #5
  ret void
}